; ModuleID = '32/2137.c'
source_filename = "32/2137.c"
target datalayout = "e-m:e-p270:32:32-p271:32:32-p272:64:64-i64:64-f80:128-n8:16:32:64-S128"
target triple = "x86_64-pc-linux-gnu"

@.str = private unnamed_addr constant [3 x i8] c"%d\00", align 1
@.str.1 = private unnamed_addr constant [3 x i8] c"%s\00", align 1
@.str.2 = private unnamed_addr constant [4 x i8] c"%s\0A\00", align 1

; Function Attrs: noinline nounwind uwtable
define dso_local void @main() #0 {
  %1 = alloca i32, align 4
  %2 = alloca i32, align 4
  %3 = alloca i32, align 4
  %4 = alloca i32, align 4
  %5 = alloca i32, align 4
  %6 = alloca i32, align 4
  %7 = alloca i32, align 4
  %8 = alloca i32, align 4
  %9 = alloca [100 x [100 x i8]], align 16
  %10 = alloca [100 x [100 x i8]], align 16
  %11 = alloca [100 x [100 x i8]], align 16
  %12 = call i32 (i8*, ...) @__isoc99_scanf(i8* getelementptr inbounds ([3 x i8], [3 x i8]* @.str, i64 0, i64 0), i32* %3)
  store i32 0, i32* %1, align 4
  br label %13

13:                                               ; preds = %28, %0
  %14 = load i32, i32* %1, align 4
  %15 = load i32, i32* %3, align 4
  %16 = icmp slt i32 %14, %15
  br i1 %16, label %17, label %31

17:                                               ; preds = %13
  %18 = load i32, i32* %1, align 4
  %19 = sext i32 %18 to i64
  %20 = getelementptr inbounds [100 x [100 x i8]], [100 x [100 x i8]]* %9, i64 0, i64 %19
  %21 = getelementptr inbounds [100 x i8], [100 x i8]* %20, i64 0, i64 0
  %22 = call i32 (i8*, ...) @__isoc99_scanf(i8* getelementptr inbounds ([3 x i8], [3 x i8]* @.str.1, i64 0, i64 0), i8* %21)
  %23 = load i32, i32* %1, align 4
  %24 = sext i32 %23 to i64
  %25 = getelementptr inbounds [100 x [100 x i8]], [100 x [100 x i8]]* %10, i64 0, i64 %24
  %26 = getelementptr inbounds [100 x i8], [100 x i8]* %25, i64 0, i64 0
  %27 = call i32 (i8*, ...) @__isoc99_scanf(i8* getelementptr inbounds ([3 x i8], [3 x i8]* @.str.1, i64 0, i64 0), i8* %26)
  br label %28

28:                                               ; preds = %17
  %29 = load i32, i32* %1, align 4
  %30 = add nsw i32 %29, 1
  store i32 %30, i32* %1, align 4
  br label %13

31:                                               ; preds = %13
  store i32 0, i32* %2, align 4
  br label %32

32:                                               ; preds = %167, %31
  %33 = load i32, i32* %2, align 4
  %34 = load i32, i32* %3, align 4
  %35 = icmp slt i32 %33, %34
  br i1 %35, label %36, label %170

36:                                               ; preds = %32
  %37 = load i32, i32* %2, align 4
  %38 = sext i32 %37 to i64
  %39 = getelementptr inbounds [100 x [100 x i8]], [100 x [100 x i8]]* %9, i64 0, i64 %38
  %40 = getelementptr inbounds [100 x i8], [100 x i8]* %39, i64 0, i64 0
  %41 = call i64 @strlen(i8* %40) #3
  %42 = trunc i64 %41 to i32
  store i32 %42, i32* %4, align 4
  %43 = load i32, i32* %2, align 4
  %44 = sext i32 %43 to i64
  %45 = getelementptr inbounds [100 x [100 x i8]], [100 x [100 x i8]]* %10, i64 0, i64 %44
  %46 = getelementptr inbounds [100 x i8], [100 x i8]* %45, i64 0, i64 0
  %47 = call i64 @strlen(i8* %46) #3
  %48 = trunc i64 %47 to i32
  store i32 %48, i32* %5, align 4
  store i32 0, i32* %1, align 4
  br label %49

49:                                               ; preds = %163, %36
  %50 = load i32, i32* %1, align 4
  %51 = load i32, i32* %4, align 4
  %52 = icmp slt i32 %50, %51
  br i1 %52, label %53, label %166

53:                                               ; preds = %49
  %54 = load i32, i32* %5, align 4
  %55 = sub nsw i32 %54, 1
  %56 = load i32, i32* %1, align 4
  %57 = sub nsw i32 %55, %56
  %58 = icmp sge i32 %57, 0
  br i1 %58, label %59, label %136

59:                                               ; preds = %53
  %60 = load i32, i32* %2, align 4
  %61 = sext i32 %60 to i64
  %62 = getelementptr inbounds [100 x [100 x i8]], [100 x [100 x i8]]* %9, i64 0, i64 %61
  %63 = load i32, i32* %4, align 4
  %64 = sub nsw i32 %63, 1
  %65 = load i32, i32* %1, align 4
  %66 = sub nsw i32 %64, %65
  %67 = sext i32 %66 to i64
  %68 = getelementptr inbounds [100 x i8], [100 x i8]* %62, i64 0, i64 %67
  %69 = load i8, i8* %68, align 1
  %70 = sext i8 %69 to i32
  %71 = sub nsw i32 %70, 48
  store i32 %71, i32* %6, align 4
  %72 = load i32, i32* %2, align 4
  %73 = sext i32 %72 to i64
  %74 = getelementptr inbounds [100 x [100 x i8]], [100 x [100 x i8]]* %10, i64 0, i64 %73
  %75 = load i32, i32* %5, align 4
  %76 = sub nsw i32 %75, 1
  %77 = load i32, i32* %1, align 4
  %78 = sub nsw i32 %76, %77
  %79 = sext i32 %78 to i64
  %80 = getelementptr inbounds [100 x i8], [100 x i8]* %74, i64 0, i64 %79
  %81 = load i8, i8* %80, align 1
  %82 = sext i8 %81 to i32
  %83 = sub nsw i32 %82, 48
  store i32 %83, i32* %7, align 4
  %84 = load i32, i32* %6, align 4
  %85 = load i32, i32* %7, align 4
  %86 = icmp sge i32 %84, %85
  br i1 %86, label %87, label %91

87:                                               ; preds = %59
  %88 = load i32, i32* %6, align 4
  %89 = load i32, i32* %7, align 4
  %90 = sub nsw i32 %88, %89
  store i32 %90, i32* %8, align 4
  br label %91

91:                                               ; preds = %87, %59
  %92 = load i32, i32* %6, align 4
  %93 = load i32, i32* %7, align 4
  %94 = icmp slt i32 %92, %93
  br i1 %94, label %95, label %123

95:                                               ; preds = %91
  %96 = load i32, i32* %6, align 4
  %97 = add nsw i32 %96, 10
  store i32 %97, i32* %6, align 4
  %98 = load i32, i32* %6, align 4
  %99 = load i32, i32* %7, align 4
  %100 = sub nsw i32 %98, %99
  store i32 %100, i32* %8, align 4
  %101 = load i32, i32* %2, align 4
  %102 = sext i32 %101 to i64
  %103 = getelementptr inbounds [100 x [100 x i8]], [100 x [100 x i8]]* %9, i64 0, i64 %102
  %104 = load i32, i32* %4, align 4
  %105 = sub nsw i32 %104, 2
  %106 = load i32, i32* %1, align 4
  %107 = sub nsw i32 %105, %106
  %108 = sext i32 %107 to i64
  %109 = getelementptr inbounds [100 x i8], [100 x i8]* %103, i64 0, i64 %108
  %110 = load i8, i8* %109, align 1
  %111 = sext i8 %110 to i32
  %112 = sub nsw i32 %111, 1
  %113 = trunc i32 %112 to i8
  %114 = load i32, i32* %2, align 4
  %115 = sext i32 %114 to i64
  %116 = getelementptr inbounds [100 x [100 x i8]], [100 x [100 x i8]]* %9, i64 0, i64 %115
  %117 = load i32, i32* %4, align 4
  %118 = sub nsw i32 %117, 2
  %119 = load i32, i32* %1, align 4
  %120 = sub nsw i32 %118, %119
  %121 = sext i32 %120 to i64
  %122 = getelementptr inbounds [100 x i8], [100 x i8]* %116, i64 0, i64 %121
  store i8 %113, i8* %122, align 1
  br label %123

123:                                              ; preds = %95, %91
  %124 = load i32, i32* %8, align 4
  %125 = add nsw i32 %124, 48
  %126 = trunc i32 %125 to i8
  %127 = load i32, i32* %2, align 4
  %128 = sext i32 %127 to i64
  %129 = getelementptr inbounds [100 x [100 x i8]], [100 x [100 x i8]]* %11, i64 0, i64 %128
  %130 = load i32, i32* %4, align 4
  %131 = sub nsw i32 %130, 1
  %132 = load i32, i32* %1, align 4
  %133 = sub nsw i32 %131, %132
  %134 = sext i32 %133 to i64
  %135 = getelementptr inbounds [100 x i8], [100 x i8]* %129, i64 0, i64 %134
  store i8 %126, i8* %135, align 1
  br label %136

136:                                              ; preds = %123, %53
  %137 = load i32, i32* %5, align 4
  %138 = sub nsw i32 %137, 1
  %139 = load i32, i32* %1, align 4
  %140 = sub nsw i32 %138, %139
  %141 = icmp slt i32 %140, 0
  br i1 %141, label %142, label %162

142:                                              ; preds = %136
  %143 = load i32, i32* %2, align 4
  %144 = sext i32 %143 to i64
  %145 = getelementptr inbounds [100 x [100 x i8]], [100 x [100 x i8]]* %9, i64 0, i64 %144
  %146 = load i32, i32* %4, align 4
  %147 = sub nsw i32 %146, 1
  %148 = load i32, i32* %1, align 4
  %149 = sub nsw i32 %147, %148
  %150 = sext i32 %149 to i64
  %151 = getelementptr inbounds [100 x i8], [100 x i8]* %145, i64 0, i64 %150
  %152 = load i8, i8* %151, align 1
  %153 = load i32, i32* %2, align 4
  %154 = sext i32 %153 to i64
  %155 = getelementptr inbounds [100 x [100 x i8]], [100 x [100 x i8]]* %11, i64 0, i64 %154
  %156 = load i32, i32* %4, align 4
  %157 = sub nsw i32 %156, 1
  %158 = load i32, i32* %1, align 4
  %159 = sub nsw i32 %157, %158
  %160 = sext i32 %159 to i64
  %161 = getelementptr inbounds [100 x i8], [100 x i8]* %155, i64 0, i64 %160
  store i8 %152, i8* %161, align 1
  br label %162

162:                                              ; preds = %142, %136
  br label %163

163:                                              ; preds = %162
  %164 = load i32, i32* %1, align 4
  %165 = add nsw i32 %164, 1
  store i32 %165, i32* %1, align 4
  br label %49

166:                                              ; preds = %49
  br label %167

167:                                              ; preds = %166
  %168 = load i32, i32* %2, align 4
  %169 = add nsw i32 %168, 1
  store i32 %169, i32* %2, align 4
  br label %32

170:                                              ; preds = %32
  store i32 0, i32* %1, align 4
  br label %171

171:                                              ; preds = %181, %170
  %172 = load i32, i32* %1, align 4
  %173 = load i32, i32* %3, align 4
  %174 = icmp slt i32 %172, %173
  br i1 %174, label %175, label %184

175:                                              ; preds = %171
  %176 = load i32, i32* %1, align 4
  %177 = sext i32 %176 to i64
  %178 = getelementptr inbounds [100 x [100 x i8]], [100 x [100 x i8]]* %11, i64 0, i64 %177
  %179 = getelementptr inbounds [100 x i8], [100 x i8]* %178, i64 0, i64 0
  %180 = call i32 (i8*, ...) @printf(i8* getelementptr inbounds ([4 x i8], [4 x i8]* @.str.2, i64 0, i64 0), i8* %179)
  br label %181

181:                                              ; preds = %175
  %182 = load i32, i32* %1, align 4
  %183 = add nsw i32 %182, 1
  store i32 %183, i32* %1, align 4
  br label %171

184:                                              ; preds = %171
  ret void
}

declare dso_local i32 @__isoc99_scanf(i8*, ...) #1

; Function Attrs: nounwind readonly
declare dso_local i64 @strlen(i8*) #2

declare dso_local i32 @printf(i8*, ...) #1


!llvm.module.flags = !{!0}
!llvm.ident = !{!1}

!0 = !{i32 1, !"wchar_size", i32 4}
!1 = !{!"clang version 10.0.0-4ubuntu1 "}
