; ModuleID = 'source-C-CXX/31/2137.c'
source_filename = "source-C-CXX/31/2137.c"
target datalayout = "e-m:e-p270:32:32-p271:32:32-p272:64:64-i64:64-f80:128-n8:16:32:64-S128"
target triple = "x86_64-pc-linux-gnu"

@.str = private unnamed_addr constant [3 x i8] c"%d\00", align 1
@.str.1 = private unnamed_addr constant [3 x i8] c"%s\00", align 1

; Function Attrs: nofree nounwind sspstrong uwtable
define dso_local void @main() local_unnamed_addr #0 {
  %1 = alloca i32, align 4
  %2 = alloca [100 x [100 x i8]], align 16
  %3 = alloca [100 x [100 x i8]], align 16
  %4 = alloca [100 x [100 x i8]], align 16
  %5 = bitcast i32* %1 to i8*
  call void @llvm.lifetime.start.p0i8(i64 4, i8* nonnull %5) #5
  %6 = getelementptr inbounds [100 x [100 x i8]], [100 x [100 x i8]]* %2, i64 0, i64 0, i64 0
  call void @llvm.lifetime.start.p0i8(i64 10000, i8* nonnull %6) #5
  %7 = getelementptr inbounds [100 x [100 x i8]], [100 x [100 x i8]]* %3, i64 0, i64 0, i64 0
  call void @llvm.lifetime.start.p0i8(i64 10000, i8* nonnull %7) #5
  %8 = getelementptr inbounds [100 x [100 x i8]], [100 x [100 x i8]]* %4, i64 0, i64 0, i64 0
  call void @llvm.lifetime.start.p0i8(i64 10000, i8* nonnull %8) #5
  %9 = call i32 (i8*, ...) @__isoc99_scanf(i8* getelementptr inbounds ([3 x i8], [3 x i8]* @.str, i64 0, i64 0), i32* nonnull %1)
  %10 = load i32, i32* %1, align 4, !tbaa !5
  %11 = icmp sgt i32 %10, 0
  br i1 %11, label %16, label %85

12:                                               ; preds = %16
  %13 = icmp sgt i32 %23, 0
  br i1 %13, label %14, label %85

14:                                               ; preds = %12
  %15 = zext i32 %23 to i64
  br label %27

16:                                               ; preds = %0, %16
  %17 = phi i64 [ %22, %16 ], [ 0, %0 ]
  %18 = getelementptr inbounds [100 x [100 x i8]], [100 x [100 x i8]]* %2, i64 0, i64 %17, i64 0
  %19 = call i32 (i8*, ...) @__isoc99_scanf(i8* getelementptr inbounds ([3 x i8], [3 x i8]* @.str.1, i64 0, i64 0), i8* nonnull %18)
  %20 = getelementptr inbounds [100 x [100 x i8]], [100 x [100 x i8]]* %3, i64 0, i64 %17, i64 0
  %21 = call i32 (i8*, ...) @__isoc99_scanf(i8* getelementptr inbounds ([3 x i8], [3 x i8]* @.str.1, i64 0, i64 0), i8* nonnull %20)
  %22 = add nuw nsw i64 %17, 1
  %23 = load i32, i32* %1, align 4, !tbaa !5
  %24 = sext i32 %23 to i64
  %25 = icmp slt i64 %22, %24
  br i1 %25, label %16, label %12, !llvm.loop !9

26:                                               ; preds = %74
  br i1 %13, label %77, label %85

27:                                               ; preds = %14, %74
  %28 = phi i64 [ 0, %14 ], [ %75, %74 ]
  %29 = getelementptr inbounds [100 x [100 x i8]], [100 x [100 x i8]]* %2, i64 0, i64 %28, i64 0
  %30 = call i64 @strlen(i8* noundef nonnull %29) #6
  %31 = trunc i64 %30 to i32
  %32 = getelementptr inbounds [100 x [100 x i8]], [100 x [100 x i8]]* %3, i64 0, i64 %28, i64 0
  %33 = call i64 @strlen(i8* noundef nonnull %32) #6
  %34 = trunc i64 %33 to i32
  %35 = add i64 %30, 4294967294
  %36 = icmp sgt i32 %31, 0
  br i1 %36, label %37, label %74

37:                                               ; preds = %27
  %38 = and i64 %30, 4294967295
  br label %39

39:                                               ; preds = %37, %68
  %40 = phi i64 [ 0, %37 ], [ %71, %68 ]
  %41 = phi i32 [ 0, %37 ], [ %72, %68 ]
  %42 = xor i32 %41, -1
  %43 = add i32 %42, %34
  %44 = icmp sgt i32 %43, -1
  %45 = add i32 %42, %31
  %46 = sext i32 %45 to i64
  %47 = getelementptr inbounds [100 x [100 x i8]], [100 x [100 x i8]]* %2, i64 0, i64 %28, i64 %46
  %48 = load i8, i8* %47, align 1, !tbaa !11
  br i1 %44, label %49, label %68

49:                                               ; preds = %39
  %50 = zext i32 %43 to i64
  %51 = getelementptr inbounds [100 x [100 x i8]], [100 x [100 x i8]]* %3, i64 0, i64 %28, i64 %50
  %52 = load i8, i8* %51, align 1, !tbaa !11
  %53 = icmp slt i8 %48, %52
  %54 = add i8 %48, -48
  br i1 %53, label %55, label %63

55:                                               ; preds = %49
  %56 = add i8 %48, -38
  %57 = sub i64 %35, %40
  %58 = shl i64 %57, 32
  %59 = ashr exact i64 %58, 32
  %60 = getelementptr inbounds [100 x [100 x i8]], [100 x [100 x i8]]* %2, i64 0, i64 %28, i64 %59
  %61 = load i8, i8* %60, align 1, !tbaa !11
  %62 = add i8 %61, -1
  store i8 %62, i8* %60, align 1, !tbaa !11
  br label %63

63:                                               ; preds = %49, %55
  %64 = phi i8 [ %56, %55 ], [ %54, %49 ]
  %65 = sub i8 48, %52
  %66 = add i8 %65, %64
  %67 = add i8 %66, 48
  br label %68

68:                                               ; preds = %39, %63
  %69 = phi i8 [ %67, %63 ], [ %48, %39 ]
  %70 = getelementptr inbounds [100 x [100 x i8]], [100 x [100 x i8]]* %4, i64 0, i64 %28, i64 %46
  store i8 %69, i8* %70, align 1, !tbaa !11
  %71 = add nuw nsw i64 %40, 1
  %72 = add nuw nsw i32 %41, 1
  %73 = icmp eq i64 %71, %38
  br i1 %73, label %74, label %39, !llvm.loop !12

74:                                               ; preds = %68, %27
  %75 = add nuw nsw i64 %28, 1
  %76 = icmp eq i64 %75, %15
  br i1 %76, label %26, label %27, !llvm.loop !13

77:                                               ; preds = %26, %77
  %78 = phi i64 [ %81, %77 ], [ 0, %26 ]
  %79 = getelementptr inbounds [100 x [100 x i8]], [100 x [100 x i8]]* %4, i64 0, i64 %78, i64 0
  %80 = call i32 @puts(i8* nonnull %79)
  %81 = add nuw nsw i64 %78, 1
  %82 = load i32, i32* %1, align 4, !tbaa !5
  %83 = sext i32 %82 to i64
  %84 = icmp slt i64 %81, %83
  br i1 %84, label %77, label %85, !llvm.loop !14

85:                                               ; preds = %77, %12, %0, %26
  call void @llvm.lifetime.end.p0i8(i64 10000, i8* nonnull %8) #5
  call void @llvm.lifetime.end.p0i8(i64 10000, i8* nonnull %7) #5
  call void @llvm.lifetime.end.p0i8(i64 10000, i8* nonnull %6) #5
  call void @llvm.lifetime.end.p0i8(i64 4, i8* nonnull %5) #5
  ret void
}

; Function Attrs: argmemonly mustprogress nofree nosync nounwind willreturn
declare void @llvm.lifetime.start.p0i8(i64 immarg, i8* nocapture) #1

; Function Attrs: nofree nounwind
declare noundef i32 @__isoc99_scanf(i8* nocapture noundef readonly, ...) local_unnamed_addr #2

; Function Attrs: argmemonly mustprogress nofree nounwind readonly willreturn
declare i64 @strlen(i8* nocapture) local_unnamed_addr #3

; Function Attrs: argmemonly mustprogress nofree nosync nounwind willreturn
declare void @llvm.lifetime.end.p0i8(i64 immarg, i8* nocapture) #1

; Function Attrs: nofree nounwind
declare noundef i32 @puts(i8* nocapture noundef readonly) local_unnamed_addr #4


!llvm.module.flags = !{!0, !1, !2, !3}
!llvm.ident = !{!4}

!0 = !{i32 1, !"wchar_size", i32 4}
!1 = !{i32 7, !"PIC Level", i32 2}
!2 = !{i32 7, !"PIE Level", i32 2}
!3 = !{i32 7, !"uwtable", i32 1}
!4 = !{!"clang version 13.0.0"}
!5 = !{!6, !6, i64 0}
!6 = !{!"int", !7, i64 0}
!7 = !{!"omnipotent char", !8, i64 0}
!8 = !{!"Simple C/C++ TBAA"}
!9 = distinct !{!9, !10}
!10 = !{!"llvm.loop.mustprogress"}
!11 = !{!7, !7, i64 0}
!12 = distinct !{!12, !10}
!13 = distinct !{!13, !10}
!14 = distinct !{!14, !10}
